target datalayout = "e-m:e-p270:32:32-p271:32:32-p272:64:64-i64:64-i128:128-f80:128-n8:16:32:64-S128"
target triple = "x86_64-pc-linux-gnu"

@.str.3 = private unnamed_addr constant [2 x i8] c"\0A\00", align 1
@.str.4 = private unnamed_addr constant [37 x i8] c"    clkbufmap [options] [selection]\0A\00", align 1
@.str.5 = private unnamed_addr constant [81 x i8] c"Inserts clock buffers between nets connected to clock inputs and their drivers.\0A\00", align 1
@.str.6 = private unnamed_addr constant [73 x i8] c"In the absence of any selection, all wires without the 'clkbuf_inhibit'\0A\00", align 1
@.str.7 = private unnamed_addr constant [58 x i8] c"attribute will be considered for clock buffer insertion.\0A\00", align 1
@.str.8 = private unnamed_addr constant [81 x i8] c"Alternatively, to consider all wires without the 'buffer_type' attribute set to\0A\00", align 1
@.str.9 = private unnamed_addr constant [37 x i8] c"'none' or 'bufr' one would specify:\0A\00", align 1
@.str.10 = private unnamed_addr constant [55 x i8] c"  'w:* a:buffer_type=none a:buffer_type=bufr %%u %%d'\0A\00", align 1
@.str.11 = private unnamed_addr constant [19 x i8] c"as the selection.\0A\00", align 1
@.str.12 = private unnamed_addr constant [50 x i8] c"    -buf <celltype> <portname_out>:<portname_in>\0A\00", align 1
@.str.13 = private unnamed_addr constant [62 x i8] c"        Specifies the cell type to use for the clock buffers\0A\00", align 1
@.str.14 = private unnamed_addr constant [66 x i8] c"        and its port names.  The first port will be connected to\0A\00", align 1
@.str.15 = private unnamed_addr constant [67 x i8] c"        the clock network sinks, and the second will be connected\0A\00", align 1
@.str.16 = private unnamed_addr constant [37 x i8] c"        to the actual clock source.\0A\00", align 1
@.str.17 = private unnamed_addr constant [52 x i8] c"    -inpad <celltype> <portname_out>:<portname_in>\0A\00", align 1
@.str.18 = private unnamed_addr constant [67 x i8] c"        If specified, a PAD cell of the given type is inserted on\0A\00", align 1
@.str.19 = private unnamed_addr constant [67 x i8] c"        clock nets that are also top module's inputs (in addition\0A\00", align 1
@.str.20 = private unnamed_addr constant [39 x i8] c"        to the clock buffer, if any).\0A\00", align 1
@.str.21 = private unnamed_addr constant [53 x i8] c"At least one of -buf or -inpad should be specified.\0A\00", align 1

; Function Attrs: mustprogress uwtable
define internal void @_ZN12_GLOBAL__N_113ClkbufmapPass4helpEv(ptr noundef nonnull align 8 dereferenceable(104) %0) unnamed_addr #4 align 2 {
  %2 = alloca ptr, align 8
  store ptr %0, ptr %2, align 8
  call void (ptr, ...) @_ZN5Yosys3logEPKcz(ptr noundef @.str.3)
  call void (ptr, ...) @_ZN5Yosys3logEPKcz(ptr noundef @.str.4)
  call void (ptr, ...) @_ZN5Yosys3logEPKcz(ptr noundef @.str.3)
  call void (ptr, ...) @_ZN5Yosys3logEPKcz(ptr noundef @.str.5)
  call void (ptr, ...) @_ZN5Yosys3logEPKcz(ptr noundef @.str.3)
  call void (ptr, ...) @_ZN5Yosys3logEPKcz(ptr noundef @.str.6)
  call void (ptr, ...) @_ZN5Yosys3logEPKcz(ptr noundef @.str.7)
  call void (ptr, ...) @_ZN5Yosys3logEPKcz(ptr noundef @.str.8)
  call void (ptr, ...) @_ZN5Yosys3logEPKcz(ptr noundef @.str.9)
  call void (ptr, ...) @_ZN5Yosys3logEPKcz(ptr noundef @.str.10)
  call void (ptr, ...) @_ZN5Yosys3logEPKcz(ptr noundef @.str.11)
  call void (ptr, ...) @_ZN5Yosys3logEPKcz(ptr noundef @.str.3)
  call void (ptr, ...) @_ZN5Yosys3logEPKcz(ptr noundef @.str.12)
  call void (ptr, ...) @_ZN5Yosys3logEPKcz(ptr noundef @.str.13)
  call void (ptr, ...) @_ZN5Yosys3logEPKcz(ptr noundef @.str.14)
  call void (ptr, ...) @_ZN5Yosys3logEPKcz(ptr noundef @.str.15)
  call void (ptr, ...) @_ZN5Yosys3logEPKcz(ptr noundef @.str.16)
  call void (ptr, ...) @_ZN5Yosys3logEPKcz(ptr noundef @.str.3)
  call void (ptr, ...) @_ZN5Yosys3logEPKcz(ptr noundef @.str.17)
  call void (ptr, ...) @_ZN5Yosys3logEPKcz(ptr noundef @.str.18)
  call void (ptr, ...) @_ZN5Yosys3logEPKcz(ptr noundef @.str.19)
  call void (ptr, ...) @_ZN5Yosys3logEPKcz(ptr noundef @.str.20)
  call void (ptr, ...) @_ZN5Yosys3logEPKcz(ptr noundef @.str.3)
  call void (ptr, ...) @_ZN5Yosys3logEPKcz(ptr noundef @.str.21)
  ret void
}